
;CodeVisionAVR C Compiler V2.03.9 Standard
;(C) Copyright 1998-2008 Pavel Haiduc, HP InfoTech s.r.l.
;http://www.hpinfotech.com

;Chip type              : ATmega32
;Program type           : Boot Loader
;Clock frequency        : 3,686400 MHz
;Memory model           : Small
;Optimize for           : Size
;(s)printf features     : int, width
;(s)scanf features      : int, width
;External RAM size      : 0
;Data Stack size        : 512 byte(s)
;Heap size              : 0 byte(s)
;Promote char to int    : Yes
;char is unsigned       : Yes
;global const stored in FLASH  : No
;8 bit enums            : Yes
;Enhanced core instructions    : On
;Smart register allocation : On
;Automatic register allocation : On

	#pragma AVRPART ADMIN PART_NAME ATmega32
	#pragma AVRPART MEMORY PROG_FLASH 32768
	#pragma AVRPART MEMORY EEPROM 1024
	#pragma AVRPART MEMORY INT_SRAM SIZE 2048
	#pragma AVRPART MEMORY INT_SRAM START_ADDR 0x60

	.LISTMAC
	.EQU UDRE=0x5
	.EQU RXC=0x7
	.EQU USR=0xB
	.EQU UDR=0xC
	.EQU SPSR=0xE
	.EQU SPDR=0xF
	.EQU EERE=0x0
	.EQU EEWE=0x1
	.EQU EEMWE=0x2
	.EQU EECR=0x1C
	.EQU EEDR=0x1D
	.EQU EEARL=0x1E
	.EQU EEARH=0x1F
	.EQU WDTCR=0x21
	.EQU MCUCR=0x35
	.EQU GICR=0x3B
	.EQU SPL=0x3D
	.EQU SPH=0x3E
	.EQU SREG=0x3F

	.DEF R0X0=R0
	.DEF R0X1=R1
	.DEF R0X2=R2
	.DEF R0X3=R3
	.DEF R0X4=R4
	.DEF R0X5=R5
	.DEF R0X6=R6
	.DEF R0X7=R7
	.DEF R0X8=R8
	.DEF R0X9=R9
	.DEF R0XA=R10
	.DEF R0XB=R11
	.DEF R0XC=R12
	.DEF R0XD=R13
	.DEF R0XE=R14
	.DEF R0XF=R15
	.DEF R0X10=R16
	.DEF R0X11=R17
	.DEF R0X12=R18
	.DEF R0X13=R19
	.DEF R0X14=R20
	.DEF R0X15=R21
	.DEF R0X16=R22
	.DEF R0X17=R23
	.DEF R0X18=R24
	.DEF R0X19=R25
	.DEF R0X1A=R26
	.DEF R0X1B=R27
	.DEF R0X1C=R28
	.DEF R0X1D=R29
	.DEF R0X1E=R30
	.DEF R0X1F=R31

	.MACRO __CPD1N
	CPI  R30,LOW(@0)
	LDI  R26,HIGH(@0)
	CPC  R31,R26
	LDI  R26,BYTE3(@0)
	CPC  R22,R26
	LDI  R26,BYTE4(@0)
	CPC  R23,R26
	.ENDM

	.MACRO __CPD2N
	CPI  R26,LOW(@0)
	LDI  R30,HIGH(@0)
	CPC  R27,R30
	LDI  R30,BYTE3(@0)
	CPC  R24,R30
	LDI  R30,BYTE4(@0)
	CPC  R25,R30
	.ENDM

	.MACRO __CPWRR
	CP   R@0,R@2
	CPC  R@1,R@3
	.ENDM

	.MACRO __CPWRN
	CPI  R@0,LOW(@2)
	LDI  R30,HIGH(@2)
	CPC  R@1,R30
	.ENDM

	.MACRO __ADDB1MN
	SUBI R30,LOW(-@0-(@1))
	.ENDM

	.MACRO __ADDB2MN
	SUBI R26,LOW(-@0-(@1))
	.ENDM

	.MACRO __ADDW1MN
	SUBI R30,LOW(-@0-(@1))
	SBCI R31,HIGH(-@0-(@1))
	.ENDM

	.MACRO __ADDW2MN
	SUBI R26,LOW(-@0-(@1))
	SBCI R27,HIGH(-@0-(@1))
	.ENDM

	.MACRO __ADDW1FN
	SUBI R30,LOW(-2*@0-(@1))
	SBCI R31,HIGH(-2*@0-(@1))
	.ENDM

	.MACRO __ADDD1FN
	SUBI R30,LOW(-2*@0-(@1))
	SBCI R31,HIGH(-2*@0-(@1))
	SBCI R22,BYTE3(-2*@0-(@1))
	.ENDM

	.MACRO __ADDD1N
	SUBI R30,LOW(-@0)
	SBCI R31,HIGH(-@0)
	SBCI R22,BYTE3(-@0)
	SBCI R23,BYTE4(-@0)
	.ENDM

	.MACRO __ADDD2N
	SUBI R26,LOW(-@0)
	SBCI R27,HIGH(-@0)
	SBCI R24,BYTE3(-@0)
	SBCI R25,BYTE4(-@0)
	.ENDM

	.MACRO __SUBD1N
	SUBI R30,LOW(@0)
	SBCI R31,HIGH(@0)
	SBCI R22,BYTE3(@0)
	SBCI R23,BYTE4(@0)
	.ENDM

	.MACRO __SUBD2N
	SUBI R26,LOW(@0)
	SBCI R27,HIGH(@0)
	SBCI R24,BYTE3(@0)
	SBCI R25,BYTE4(@0)
	.ENDM

	.MACRO __ANDBMNN
	LDS  R30,@0+@1
	ANDI R30,LOW(@2)
	STS  @0+@1,R30
	.ENDM

	.MACRO __ANDWMNN
	LDS  R30,@0+@1
	ANDI R30,LOW(@2)
	STS  @0+@1,R30
	LDS  R30,@0+@1+1
	ANDI R30,HIGH(@2)
	STS  @0+@1+1,R30
	.ENDM

	.MACRO __ANDD1N
	ANDI R30,LOW(@0)
	ANDI R31,HIGH(@0)
	ANDI R22,BYTE3(@0)
	ANDI R23,BYTE4(@0)
	.ENDM

	.MACRO __ANDD2N
	ANDI R26,LOW(@0)
	ANDI R27,HIGH(@0)
	ANDI R24,BYTE3(@0)
	ANDI R25,BYTE4(@0)
	.ENDM

	.MACRO __ORBMNN
	LDS  R30,@0+@1
	ORI  R30,LOW(@2)
	STS  @0+@1,R30
	.ENDM

	.MACRO __ORWMNN
	LDS  R30,@0+@1
	ORI  R30,LOW(@2)
	STS  @0+@1,R30
	LDS  R30,@0+@1+1
	ORI  R30,HIGH(@2)
	STS  @0+@1+1,R30
	.ENDM

	.MACRO __ORD1N
	ORI  R30,LOW(@0)
	ORI  R31,HIGH(@0)
	ORI  R22,BYTE3(@0)
	ORI  R23,BYTE4(@0)
	.ENDM

	.MACRO __ORD2N
	ORI  R26,LOW(@0)
	ORI  R27,HIGH(@0)
	ORI  R24,BYTE3(@0)
	ORI  R25,BYTE4(@0)
	.ENDM

	.MACRO __DELAY_USB
	LDI  R24,LOW(@0)
__DELAY_USB_LOOP:
	DEC  R24
	BRNE __DELAY_USB_LOOP
	.ENDM

	.MACRO __DELAY_USW
	LDI  R24,LOW(@0)
	LDI  R25,HIGH(@0)
__DELAY_USW_LOOP:
	SBIW R24,1
	BRNE __DELAY_USW_LOOP
	.ENDM

	.MACRO __GETD1S
	LDD  R30,Y+@0
	LDD  R31,Y+@0+1
	LDD  R22,Y+@0+2
	LDD  R23,Y+@0+3
	.ENDM

	.MACRO __PUTD1S
	STD  Y+@0,R30
	STD  Y+@0+1,R31
	STD  Y+@0+2,R22
	STD  Y+@0+3,R23
	.ENDM

	.MACRO __PUTD2S
	STD  Y+@0,R26
	STD  Y+@0+1,R27
	STD  Y+@0+2,R24
	STD  Y+@0+3,R25
	.ENDM

	.MACRO __POINTB1MN
	LDI  R30,LOW(@0+@1)
	.ENDM

	.MACRO __POINTW1MN
	LDI  R30,LOW(@0+@1)
	LDI  R31,HIGH(@0+@1)
	.ENDM

	.MACRO __POINTD1M
	LDI  R30,LOW(@0)
	LDI  R31,HIGH(@0)
	LDI  R22,BYTE3(@0)
	LDI  R23,BYTE4(@0)
	.ENDM

	.MACRO __POINTW1FN
	LDI  R30,LOW(2*@0+@1)
	LDI  R31,HIGH(2*@0+@1)
	.ENDM

	.MACRO __POINTD1FN
	LDI  R30,LOW(2*@0+@1)
	LDI  R31,HIGH(2*@0+@1)
	LDI  R22,BYTE3(2*@0+@1)
	LDI  R23,BYTE4(2*@0+@1)
	.ENDM

	.MACRO __POINTB2MN
	LDI  R26,LOW(@0+@1)
	.ENDM

	.MACRO __POINTW2MN
	LDI  R26,LOW(@0+@1)
	LDI  R27,HIGH(@0+@1)
	.ENDM

	.MACRO __POINTBRM
	LDI  R@0,LOW(@1)
	.ENDM

	.MACRO __POINTWRM
	LDI  R@0,LOW(@2)
	LDI  R@1,HIGH(@2)
	.ENDM

	.MACRO __POINTBRMN
	LDI  R@0,LOW(@1+@2)
	.ENDM

	.MACRO __POINTWRMN
	LDI  R@0,LOW(@2+@3)
	LDI  R@1,HIGH(@2+@3)
	.ENDM

	.MACRO __POINTWRFN
	LDI  R@0,LOW(@2*2+@3)
	LDI  R@1,HIGH(@2*2+@3)
	.ENDM

	.MACRO __GETD1N
	LDI  R30,LOW(@0)
	LDI  R31,HIGH(@0)
	LDI  R22,BYTE3(@0)
	LDI  R23,BYTE4(@0)
	.ENDM

	.MACRO __GETD2N
	LDI  R26,LOW(@0)
	LDI  R27,HIGH(@0)
	LDI  R24,BYTE3(@0)
	LDI  R25,BYTE4(@0)
	.ENDM

	.MACRO __GETD2S
	LDD  R26,Y+@0
	LDD  R27,Y+@0+1
	LDD  R24,Y+@0+2
	LDD  R25,Y+@0+3
	.ENDM

	.MACRO __GETB1MN
	LDS  R30,@0+@1
	.ENDM

	.MACRO __GETB1HMN
	LDS  R31,@0+@1
	.ENDM

	.MACRO __GETW1MN
	LDS  R30,@0+@1
	LDS  R31,@0+@1+1
	.ENDM

	.MACRO __GETD1MN
	LDS  R30,@0+@1
	LDS  R31,@0+@1+1
	LDS  R22,@0+@1+2
	LDS  R23,@0+@1+3
	.ENDM

	.MACRO __GETBRMN
	LDS  R@0,@1+@2
	.ENDM

	.MACRO __GETWRMN
	LDS  R@0,@2+@3
	LDS  R@1,@2+@3+1
	.ENDM

	.MACRO __GETWRZ
	LDD  R@0,Z+@2
	LDD  R@1,Z+@2+1
	.ENDM

	.MACRO __GETD2Z
	LDD  R26,Z+@0
	LDD  R27,Z+@0+1
	LDD  R24,Z+@0+2
	LDD  R25,Z+@0+3
	.ENDM

	.MACRO __GETB2MN
	LDS  R26,@0+@1
	.ENDM

	.MACRO __GETW2MN
	LDS  R26,@0+@1
	LDS  R27,@0+@1+1
	.ENDM

	.MACRO __GETD2MN
	LDS  R26,@0+@1
	LDS  R27,@0+@1+1
	LDS  R24,@0+@1+2
	LDS  R25,@0+@1+3
	.ENDM

	.MACRO __PUTB1MN
	STS  @0+@1,R30
	.ENDM

	.MACRO __PUTW1MN
	STS  @0+@1,R30
	STS  @0+@1+1,R31
	.ENDM

	.MACRO __PUTD1MN
	STS  @0+@1,R30
	STS  @0+@1+1,R31
	STS  @0+@1+2,R22
	STS  @0+@1+3,R23
	.ENDM

	.MACRO __PUTB1EN
	LDI  R26,LOW(@0+@1)
	LDI  R27,HIGH(@0+@1)
	CALL __EEPROMWRB
	.ENDM

	.MACRO __PUTW1EN
	LDI  R26,LOW(@0+@1)
	LDI  R27,HIGH(@0+@1)
	CALL __EEPROMWRW
	.ENDM

	.MACRO __PUTD1EN
	LDI  R26,LOW(@0+@1)
	LDI  R27,HIGH(@0+@1)
	CALL __EEPROMWRD
	.ENDM

	.MACRO __PUTBR0MN
	STS  @0+@1,R0
	.ENDM

	.MACRO __PUTDZ2
	STD  Z+@0,R26
	STD  Z+@0+1,R27
	STD  Z+@0+2,R24
	STD  Z+@0+3,R25
	.ENDM

	.MACRO __PUTBMRN
	STS  @0+@1,R@2
	.ENDM

	.MACRO __PUTWMRN
	STS  @0+@1,R@2
	STS  @0+@1+1,R@3
	.ENDM

	.MACRO __PUTBZR
	STD  Z+@1,R@0
	.ENDM

	.MACRO __PUTWZR
	STD  Z+@2,R@0
	STD  Z+@2+1,R@1
	.ENDM

	.MACRO __GETW1R
	MOV  R30,R@0
	MOV  R31,R@1
	.ENDM

	.MACRO __GETW2R
	MOV  R26,R@0
	MOV  R27,R@1
	.ENDM

	.MACRO __GETWRN
	LDI  R@0,LOW(@2)
	LDI  R@1,HIGH(@2)
	.ENDM

	.MACRO __PUTW1R
	MOV  R@0,R30
	MOV  R@1,R31
	.ENDM

	.MACRO __PUTW2R
	MOV  R@0,R26
	MOV  R@1,R27
	.ENDM

	.MACRO __ADDWRN
	SUBI R@0,LOW(-@2)
	SBCI R@1,HIGH(-@2)
	.ENDM

	.MACRO __ADDWRR
	ADD  R@0,R@2
	ADC  R@1,R@3
	.ENDM

	.MACRO __SUBWRN
	SUBI R@0,LOW(@2)
	SBCI R@1,HIGH(@2)
	.ENDM

	.MACRO __SUBWRR
	SUB  R@0,R@2
	SBC  R@1,R@3
	.ENDM

	.MACRO __ANDWRN
	ANDI R@0,LOW(@2)
	ANDI R@1,HIGH(@2)
	.ENDM

	.MACRO __ANDWRR
	AND  R@0,R@2
	AND  R@1,R@3
	.ENDM

	.MACRO __ORWRN
	ORI  R@0,LOW(@2)
	ORI  R@1,HIGH(@2)
	.ENDM

	.MACRO __ORWRR
	OR   R@0,R@2
	OR   R@1,R@3
	.ENDM

	.MACRO __EORWRR
	EOR  R@0,R@2
	EOR  R@1,R@3
	.ENDM

	.MACRO __GETWRS
	LDD  R@0,Y+@2
	LDD  R@1,Y+@2+1
	.ENDM

	.MACRO __PUTWSR
	STD  Y+@2,R@0
	STD  Y+@2+1,R@1
	.ENDM

	.MACRO __MOVEWRR
	MOV  R@0,R@2
	MOV  R@1,R@3
	.ENDM

	.MACRO __INWR
	IN   R@0,@2
	IN   R@1,@2+1
	.ENDM

	.MACRO __OUTWR
	OUT  @2+1,R@1
	OUT  @2,R@0
	.ENDM

	.MACRO __CALL1MN
	LDS  R30,@0+@1
	LDS  R31,@0+@1+1
	ICALL
	.ENDM

	.MACRO __CALL1FN
	LDI  R30,LOW(2*@0+@1)
	LDI  R31,HIGH(2*@0+@1)
	CALL __GETW1PF
	ICALL
	.ENDM

	.MACRO __CALL2EN
	LDI  R26,LOW(@0+@1)
	LDI  R27,HIGH(@0+@1)
	CALL __EEPROMRDW
	ICALL
	.ENDM

	.MACRO __GETW1STACK
	IN   R26,SPL
	IN   R27,SPH
	ADIW R26,@0+1
	LD   R30,X+
	LD   R31,X
	.ENDM

	.MACRO __NBST
	BST  R@0,@1
	IN   R30,SREG
	LDI  R31,0x40
	EOR  R30,R31
	OUT  SREG,R30
	.ENDM


	.MACRO __PUTB1SN
	LDD  R26,Y+@0
	LDD  R27,Y+@0+1
	SUBI R26,LOW(-@1)
	SBCI R27,HIGH(-@1)
	ST   X,R30
	.ENDM

	.MACRO __PUTW1SN
	LDD  R26,Y+@0
	LDD  R27,Y+@0+1
	SUBI R26,LOW(-@1)
	SBCI R27,HIGH(-@1)
	ST   X+,R30
	ST   X,R31
	.ENDM

	.MACRO __PUTD1SN
	LDD  R26,Y+@0
	LDD  R27,Y+@0+1
	SUBI R26,LOW(-@1)
	SBCI R27,HIGH(-@1)
	CALL __PUTDP1
	.ENDM

	.MACRO __PUTB1SNS
	LDD  R26,Y+@0
	LDD  R27,Y+@0+1
	ADIW R26,@1
	ST   X,R30
	.ENDM

	.MACRO __PUTW1SNS
	LDD  R26,Y+@0
	LDD  R27,Y+@0+1
	ADIW R26,@1
	ST   X+,R30
	ST   X,R31
	.ENDM

	.MACRO __PUTD1SNS
	LDD  R26,Y+@0
	LDD  R27,Y+@0+1
	ADIW R26,@1
	CALL __PUTDP1
	.ENDM

	.MACRO __PUTB1PMN
	LDS  R26,@0
	LDS  R27,@0+1
	SUBI R26,LOW(-@1)
	SBCI R27,HIGH(-@1)
	ST   X,R30
	.ENDM

	.MACRO __PUTW1PMN
	LDS  R26,@0
	LDS  R27,@0+1
	SUBI R26,LOW(-@1)
	SBCI R27,HIGH(-@1)
	ST   X+,R30
	ST   X,R31
	.ENDM

	.MACRO __PUTD1PMN
	LDS  R26,@0
	LDS  R27,@0+1
	SUBI R26,LOW(-@1)
	SBCI R27,HIGH(-@1)
	CALL __PUTDP1
	.ENDM

	.MACRO __PUTB1PMNS
	LDS  R26,@0
	LDS  R27,@0+1
	ADIW R26,@1
	ST   X,R30
	.ENDM

	.MACRO __PUTW1PMNS
	LDS  R26,@0
	LDS  R27,@0+1
	ADIW R26,@1
	ST   X+,R30
	ST   X,R31
	.ENDM

	.MACRO __PUTD1PMNS
	LDS  R26,@0
	LDS  R27,@0+1
	ADIW R26,@1
	CALL __PUTDP1
	.ENDM

	.MACRO __PUTB1RN
	MOVW R26,R@0
	SUBI R26,LOW(-@1)
	SBCI R27,HIGH(-@1)
	ST   X,R30
	.ENDM

	.MACRO __PUTW1RN
	MOVW R26,R@0
	SUBI R26,LOW(-@1)
	SBCI R27,HIGH(-@1)
	ST   X+,R30
	ST   X,R31
	.ENDM

	.MACRO __PUTD1RN
	MOVW R26,R@0
	SUBI R26,LOW(-@1)
	SBCI R27,HIGH(-@1)
	CALL __PUTDP1
	.ENDM

	.MACRO __PUTB1RNS
	MOVW R26,R@0
	ADIW R26,@1
	ST   X,R30
	.ENDM

	.MACRO __PUTW1RNS
	MOVW R26,R@0
	ADIW R26,@1
	ST   X+,R30
	ST   X,R31
	.ENDM

	.MACRO __PUTD1RNS
	MOVW R26,R@0
	ADIW R26,@1
	CALL __PUTDP1
	.ENDM

	.MACRO __PUTB1RON
	MOV  R26,R@0
	MOV  R27,R@1
	SUBI R26,LOW(-@2)
	SBCI R27,HIGH(-@2)
	ST   X,R30
	.ENDM

	.MACRO __PUTW1RON
	MOV  R26,R@0
	MOV  R27,R@1
	SUBI R26,LOW(-@2)
	SBCI R27,HIGH(-@2)
	ST   X+,R30
	ST   X,R31
	.ENDM

	.MACRO __PUTD1RON
	MOV  R26,R@0
	MOV  R27,R@1
	SUBI R26,LOW(-@2)
	SBCI R27,HIGH(-@2)
	CALL __PUTDP1
	.ENDM

	.MACRO __PUTB1RONS
	MOV  R26,R@0
	MOV  R27,R@1
	ADIW R26,@2
	ST   X,R30
	.ENDM

	.MACRO __PUTW1RONS
	MOV  R26,R@0
	MOV  R27,R@1
	ADIW R26,@2
	ST   X+,R30
	ST   X,R31
	.ENDM

	.MACRO __PUTD1RONS
	MOV  R26,R@0
	MOV  R27,R@1
	ADIW R26,@2
	CALL __PUTDP1
	.ENDM


	.MACRO __GETB1SX
	MOVW R30,R28
	SUBI R30,LOW(-@0)
	SBCI R31,HIGH(-@0)
	LD   R30,Z
	.ENDM

	.MACRO __GETB1HSX
	MOVW R30,R28
	SUBI R30,LOW(-@0)
	SBCI R31,HIGH(-@0)
	LD   R31,Z
	.ENDM

	.MACRO __GETW1SX
	MOVW R30,R28
	SUBI R30,LOW(-@0)
	SBCI R31,HIGH(-@0)
	LD   R0,Z+
	LD   R31,Z
	MOV  R30,R0
	.ENDM

	.MACRO __GETD1SX
	MOVW R30,R28
	SUBI R30,LOW(-@0)
	SBCI R31,HIGH(-@0)
	LD   R0,Z+
	LD   R1,Z+
	LD   R22,Z+
	LD   R23,Z
	MOVW R30,R0
	.ENDM

	.MACRO __GETB2SX
	MOVW R26,R28
	SUBI R26,LOW(-@0)
	SBCI R27,HIGH(-@0)
	LD   R26,X
	.ENDM

	.MACRO __GETW2SX
	MOVW R26,R28
	SUBI R26,LOW(-@0)
	SBCI R27,HIGH(-@0)
	LD   R0,X+
	LD   R27,X
	MOV  R26,R0
	.ENDM

	.MACRO __GETD2SX
	MOVW R26,R28
	SUBI R26,LOW(-@0)
	SBCI R27,HIGH(-@0)
	LD   R0,X+
	LD   R1,X+
	LD   R24,X+
	LD   R25,X
	MOVW R26,R0
	.ENDM

	.MACRO __GETBRSX
	MOVW R30,R28
	SUBI R30,LOW(-@1)
	SBCI R31,HIGH(-@1)
	LD   R@0,Z
	.ENDM

	.MACRO __GETWRSX
	MOVW R30,R28
	SUBI R30,LOW(-@2)
	SBCI R31,HIGH(-@2)
	LD   R@0,Z+
	LD   R@1,Z
	.ENDM

	.MACRO __LSLW8SX
	MOVW R30,R28
	SUBI R30,LOW(-@0)
	SBCI R31,HIGH(-@0)
	LD   R31,Z
	CLR  R30
	.ENDM

	.MACRO __PUTB1SX
	MOVW R26,R28
	SUBI R26,LOW(-@0)
	SBCI R27,HIGH(-@0)
	ST   X,R30
	.ENDM

	.MACRO __PUTW1SX
	MOVW R26,R28
	SUBI R26,LOW(-@0)
	SBCI R27,HIGH(-@0)
	ST   X+,R30
	ST   X,R31
	.ENDM

	.MACRO __PUTD1SX
	MOVW R26,R28
	SUBI R26,LOW(-@0)
	SBCI R27,HIGH(-@0)
	ST   X+,R30
	ST   X+,R31
	ST   X+,R22
	ST   X,R23
	.ENDM

	.MACRO __CLRW1SX
	MOVW R26,R28
	SUBI R26,LOW(-@0)
	SBCI R27,HIGH(-@0)
	ST   X+,R30
	ST   X,R30
	.ENDM

	.MACRO __CLRD1SX
	MOVW R26,R28
	SUBI R26,LOW(-@0)
	SBCI R27,HIGH(-@0)
	ST   X+,R30
	ST   X+,R30
	ST   X+,R30
	ST   X,R30
	.ENDM

	.MACRO __PUTB2SX
	MOVW R30,R28
	SUBI R30,LOW(-@0)
	SBCI R31,HIGH(-@0)
	ST   Z,R26
	.ENDM

	.MACRO __PUTW2SX
	MOVW R30,R28
	SUBI R30,LOW(-@0)
	SBCI R31,HIGH(-@0)
	ST   Z+,R26
	ST   Z,R27
	.ENDM

	.MACRO __PUTD2SX
	MOVW R30,R28
	SUBI R30,LOW(-@0)
	SBCI R31,HIGH(-@0)
	ST   Z+,R26
	ST   Z+,R27
	ST   Z+,R24
	ST   Z,R25
	.ENDM

	.MACRO __PUTBSRX
	MOVW R30,R28
	SUBI R30,LOW(-@0)
	SBCI R31,HIGH(-@0)
	ST   Z,R@1
	.ENDM

	.MACRO __PUTWSRX
	MOVW R30,R28
	SUBI R30,LOW(-@2)
	SBCI R31,HIGH(-@2)
	ST   Z+,R@0
	ST   Z,R@1
	.ENDM

	.MACRO __PUTB1SNX
	MOVW R26,R28
	SUBI R26,LOW(-@0)
	SBCI R27,HIGH(-@0)
	LD   R0,X+
	LD   R27,X
	MOV  R26,R0
	SUBI R26,LOW(-@1)
	SBCI R27,HIGH(-@1)
	ST   X,R30
	.ENDM

	.MACRO __PUTW1SNX
	MOVW R26,R28
	SUBI R26,LOW(-@0)
	SBCI R27,HIGH(-@0)
	LD   R0,X+
	LD   R27,X
	MOV  R26,R0
	SUBI R26,LOW(-@1)
	SBCI R27,HIGH(-@1)
	ST   X+,R30
	ST   X,R31
	.ENDM

	.MACRO __PUTD1SNX
	MOVW R26,R28
	SUBI R26,LOW(-@0)
	SBCI R27,HIGH(-@0)
	LD   R0,X+
	LD   R27,X
	MOV  R26,R0
	SUBI R26,LOW(-@1)
	SBCI R27,HIGH(-@1)
	ST   X+,R30
	ST   X+,R31
	ST   X+,R22
	ST   X,R23
	.ENDM

	.MACRO __MULBRR
	MULS R@0,R@1
	MOVW R30,R0
	.ENDM

	.MACRO __MULBRRU
	MUL  R@0,R@1
	MOVW R30,R0
	.ENDM

	.MACRO __MULBRR0
	MULS R@0,R@1
	.ENDM

	.MACRO __MULBRRU0
	MUL  R@0,R@1
	.ENDM

	.MACRO __MULBNWRU
	LDI  R26,@2
	MUL  R26,R@0
	MOVW R30,R0
	MUL  R26,R@1
	ADD  R31,R0
	.ENDM

;NAME DEFINITIONS FOR GLOBAL VARIABLES ALLOCATED TO REGISTERS
	.DEF _rx_wr_index=R5
	.DEF _rx_rd_index=R4
	.DEF _rx_counter=R7
	.DEF _tx_wr_index=R6
	.DEF _tx_rd_index=R9
	.DEF _tx_counter=R8
	.DEF _indata=R11

	.CSEG
	.ORG 0x3E00

;INTERRUPT VECTORS
	JMP  __RESET
	JMP  0x3E00
	JMP  0x3E00
	JMP  0x3E00
	JMP  0x3E00
	JMP  0x3E00
	JMP  0x3E00
	JMP  0x3E00
	JMP  0x3E00
	JMP  0x3E00
	JMP  0x3E00
	JMP  0x3E00
	JMP  0x3E00
	JMP  _usart_rx_isr
	JMP  0x3E00
	JMP  _usart_tx_isr
	JMP  0x3E00
	JMP  0x3E00
	JMP  0x3E00
	JMP  0x3E00
	JMP  0x3E00

_tbl10_G100:
	.DB  0x10,0x27,0xE8,0x3,0x64,0x0,0xA,0x0
	.DB  0x1,0x0
_tbl16_G100:
	.DB  0x0,0x10,0x0,0x1,0x10,0x0,0x1,0x0

_0x14:
	.DB  0x11,0xD3,0x7B,0x43

__GLOBAL_INI_TBL:
	.DW  0x04
	.DW  _lockcode
	.DW  _0x14*2

_0xFFFFFFFF:
	.DW  0

__RESET:
	CLI
	CLR  R30
	OUT  EECR,R30

;INTERRUPT VECTORS ARE PLACED
;AT THE START OF THE BOOT LOADER
	LDI  R31,1
	OUT  GICR,R31
	LDI  R31,2
	OUT  GICR,R31
	OUT  MCUCR,R30

;DISABLE WATCHDOG
	LDI  R31,0x18
	OUT  WDTCR,R31
	OUT  WDTCR,R30

;CLEAR R2-R14
	LDI  R24,(14-2)+1
	LDI  R26,2
	CLR  R27
__CLEAR_REG:
	ST   X+,R30
	DEC  R24
	BRNE __CLEAR_REG

;CLEAR SRAM
	LDI  R24,LOW(0x800)
	LDI  R25,HIGH(0x800)
	LDI  R26,0x60
__CLEAR_SRAM:
	ST   X+,R30
	SBIW R24,1
	BRNE __CLEAR_SRAM

;GLOBAL VARIABLES INITIALIZATION
	LDI  R30,LOW(__GLOBAL_INI_TBL*2)
	LDI  R31,HIGH(__GLOBAL_INI_TBL*2)
__GLOBAL_INI_NEXT:
	LPM  R24,Z+
	LPM  R25,Z+
	SBIW R24,0
	BREQ __GLOBAL_INI_END
	LPM  R26,Z+
	LPM  R27,Z+
	LPM  R0,Z+
	LPM  R1,Z+
	MOVW R22,R30
	MOVW R30,R0
__GLOBAL_INI_LOOP:
	LPM  R0,Z+
	ST   X+,R0
	SBIW R24,1
	BRNE __GLOBAL_INI_LOOP
	MOVW R30,R22
	RJMP __GLOBAL_INI_NEXT
__GLOBAL_INI_END:

;STACK POINTER INITIALIZATION
	LDI  R30,LOW(0x85F)
	OUT  SPL,R30
	LDI  R30,HIGH(0x85F)
	OUT  SPH,R30

;DATA STACK POINTER INITIALIZATION
	LDI  R28,LOW(0x260)
	LDI  R29,HIGH(0x260)

	JMP  _main

	.ESEG
	.ORG 0

	.DSEG
	.ORG 0x260

	.CSEG
;/*****************************************************
;Project : Example application for use with CVmegaload
;Version : 1.00
;Date    : 16/05/2004
;Author  : Ralph Hilton
;
;Chip type           : ATmega8
;Program type        : Application
;Clock frequency     : 7.372800 MHz
;Data Stack size     : 256
;*****************************************************/
;
;#include <mega32.h>
	#ifndef __SLEEP_DEFINED__
	#define __SLEEP_DEFINED__
	.EQU __se_bit=0x80
	.EQU __sm_mask=0x70
	.EQU __sm_powerdown=0x20
	.EQU __sm_powersave=0x30
	.EQU __sm_standby=0x60
	.EQU __sm_ext_standby=0x70
	.EQU __sm_adc_noise_red=0x10
	.SET power_ctrl_reg=mcucr
	#endif
;#include <delay.h>
;
;#define RXB8 1
;#define TXB8 0
;#define UPE 2
;#define OVR 3
;#define FE 4
;#define UDRE 5
;#define RXC 7
;
;#define FRAMING_ERROR (1<<FE)
;#define PARITY_ERROR (1<<UPE)
;#define DATA_OVERRUN (1<<OVR)
;#define DATA_REGISTER_EMPTY (1<<UDRE)
;#define RX_COMPLETE (1<<RXC)
;#define RXEN    4            // Разрешение приема
;#define TXEN    3            // Разрешение передачи
;#define BAUDRATE 115200UL
;
;// USART Receiver buffer
;#define RX_BUFFER_SIZE 32
;char rx_buffer[RX_BUFFER_SIZE];
;
;#if RX_BUFFER_SIZE<256
;unsigned char rx_wr_index,rx_rd_index,rx_counter;
;#else
;unsigned int rx_wr_index,rx_rd_index,rx_counter;
;#endif
;
;// This flag is set on USART Receiver buffer overflow
;bit rx_buffer_overflow;
;
;// USART Receiver interrupt service routine
;interrupt [USART_RXC] void usart_rx_isr(void)
; 0000 0030 {

	.CSEG
_usart_rx_isr:
	ST   -Y,R30
	ST   -Y,R31
	IN   R30,SREG
	ST   -Y,R30
; 0000 0031 char status,data;
; 0000 0032 status=UCSRA;
	ST   -Y,R17
	ST   -Y,R16
;	status -> R17
;	data -> R16
	IN   R17,11
; 0000 0033 data=UDR;
	IN   R16,12
; 0000 0034 if ((status & (FRAMING_ERROR | PARITY_ERROR | DATA_OVERRUN))==0)
	MOV  R30,R17
	ANDI R30,LOW(0x1C)
	BRNE _0x3
; 0000 0035    {
; 0000 0036    rx_buffer[rx_wr_index]=data;
	MOV  R30,R5
	LDI  R31,0
	SUBI R30,LOW(-_rx_buffer)
	SBCI R31,HIGH(-_rx_buffer)
	ST   Z,R16
; 0000 0037    if (++rx_wr_index == RX_BUFFER_SIZE) rx_wr_index=0;
	INC  R5
	LDI  R30,LOW(32)
	CP   R30,R5
	BRNE _0x4
	CLR  R5
; 0000 0038    if (++rx_counter == RX_BUFFER_SIZE)
_0x4:
	INC  R7
	LDI  R30,LOW(32)
	CP   R30,R7
	BRNE _0x5
; 0000 0039       {
; 0000 003A       rx_counter=0;
	CLR  R7
; 0000 003B       rx_buffer_overflow=1;
	SET
	BLD  R2,0
; 0000 003C       };
_0x5:
; 0000 003D    };
_0x3:
; 0000 003E }
	LD   R16,Y+
	LD   R17,Y+
	RJMP _0x21
;
;#ifndef _DEBUG_TERMINAL_IO_
;// Get a character from the USART Receiver buffer
;#define _ALTERNATE_GETCHAR_
;#pragma used+
;char getchar(void)
; 0000 0045 {
_getchar:
; 0000 0046     char data;
; 0000 0047     while (rx_counter==0);
	ST   -Y,R17
;	data -> R17
_0x6:
	TST  R7
	BREQ _0x6
; 0000 0048     data=rx_buffer[rx_rd_index];
	MOV  R30,R4
	LDI  R31,0
	SUBI R30,LOW(-_rx_buffer)
	SBCI R31,HIGH(-_rx_buffer)
	LD   R17,Z
; 0000 0049     if (++rx_rd_index == RX_BUFFER_SIZE) rx_rd_index=0;
	INC  R4
	LDI  R30,LOW(32)
	CP   R30,R4
	BRNE _0x9
	CLR  R4
; 0000 004A     #asm("cli")
_0x9:
	cli
; 0000 004B     --rx_counter;
	DEC  R7
; 0000 004C     #asm("sei")
	sei
; 0000 004D     return data;
	MOV  R30,R17
	LD   R17,Y+
	RET
; 0000 004E }
;#pragma used-
;#endif
;
;// USART Transmitter buffer
;#define TX_BUFFER_SIZE 32
;char tx_buffer[TX_BUFFER_SIZE];
;
;#if TX_BUFFER_SIZE<256
;unsigned char tx_wr_index,tx_rd_index,tx_counter;
;#else
;unsigned int tx_wr_index,tx_rd_index,tx_counter;
;#endif
;
;// USART Transmitter interrupt service routine
;interrupt [USART_TXC] void usart_tx_isr(void)
; 0000 005E {
_usart_tx_isr:
	ST   -Y,R30
	ST   -Y,R31
	IN   R30,SREG
	ST   -Y,R30
; 0000 005F if (tx_counter)
	TST  R8
	BREQ _0xA
; 0000 0060    {
; 0000 0061    --tx_counter;
	DEC  R8
; 0000 0062    UDR=tx_buffer[tx_rd_index];
	MOV  R30,R9
	LDI  R31,0
	SUBI R30,LOW(-_tx_buffer)
	SBCI R31,HIGH(-_tx_buffer)
	LD   R30,Z
	OUT  0xC,R30
; 0000 0063    if (++tx_rd_index == TX_BUFFER_SIZE) tx_rd_index=0;
	INC  R9
	LDI  R30,LOW(32)
	CP   R30,R9
	BRNE _0xB
	CLR  R9
; 0000 0064    };
_0xB:
_0xA:
; 0000 0065 }
_0x21:
	LD   R30,Y+
	OUT  SREG,R30
	LD   R31,Y+
	LD   R30,Y+
	RETI
;
;#ifndef _DEBUG_TERMINAL_IO_
;// Write a character to the USART Transmitter buffer
;#define _ALTERNATE_PUTCHAR_
;#pragma used+
;void putchar(char c)
; 0000 006C {
_putchar:
; 0000 006D while (tx_counter == TX_BUFFER_SIZE);
;	c -> Y+0
_0xC:
	LDI  R30,LOW(32)
	CP   R30,R8
	BREQ _0xC
; 0000 006E #asm("cli")
	cli
; 0000 006F if (tx_counter || ((UCSRA & DATA_REGISTER_EMPTY)==0))
	TST  R8
	BRNE _0x10
	SBIC 0xB,5
	RJMP _0xF
_0x10:
; 0000 0070    {
; 0000 0071    tx_buffer[tx_wr_index]=c;
	MOV  R30,R6
	LDI  R31,0
	SUBI R30,LOW(-_tx_buffer)
	SBCI R31,HIGH(-_tx_buffer)
	LD   R26,Y
	STD  Z+0,R26
; 0000 0072    if (++tx_wr_index == TX_BUFFER_SIZE) tx_wr_index=0;
	INC  R6
	LDI  R30,LOW(32)
	CP   R30,R6
	BRNE _0x12
	CLR  R6
; 0000 0073    ++tx_counter;
_0x12:
	INC  R8
; 0000 0074    }
; 0000 0075 else
	RJMP _0x13
_0xF:
; 0000 0076    UDR=c;
	LD   R30,Y
	OUT  0xC,R30
; 0000 0077 #asm("sei")
_0x13:
	sei
; 0000 0078 }
	ADIW R28,1
	RET
;#pragma used-
;#endif
;
;// Standard Input/Output functions
;#include <stdio.h>
;
;const unsigned long int lockcode = 1132188433; // bytes 67,123,211,17 to bootload (43 7B D3 11)

	.DSEG
;unsigned long int checklockcode;
;char indata;
;
;void main(void)
; 0000 0084 {

	.CSEG
_main:
; 0000 0085 	unsigned int  bauddiv;
; 0000 0086     unsigned char dot = '.';
; 0000 0087 
; 0000 0088 PORTA=0x00; DDRA=0xFC;
;	bauddiv -> R16,R17
;	dot -> R19
	LDI  R19,46
	LDI  R30,LOW(0)
	OUT  0x1B,R30
	LDI  R30,LOW(252)
	OUT  0x1A,R30
; 0000 0089 // Declare your local variables here
; 0000 008A 
; 0000 008B // Input/Output Ports initialization
; 0000 008C // Port B initialization
; 0000 008D // Func7=In Func6=In Func5=In Func4=In Func3=In Func2=In Func1=In Func0=In
; 0000 008E // State7=T State6=T State5=T State4=T State3=T State2=T State1=T State0=T
; 0000 008F PORTB=0x00;
	LDI  R30,LOW(0)
	OUT  0x18,R30
; 0000 0090 DDRB=0x00;
	OUT  0x17,R30
; 0000 0091 
; 0000 0092 // Port C initialization
; 0000 0093 // Func6=In Func5=In Func4=In Func3=In Func2=In Func1=In Func0=In
; 0000 0094 // State6=T State5=T State4=T State3=T State2=T State1=T State0=T
; 0000 0095 PORTC=0x00;
	OUT  0x15,R30
; 0000 0096 DDRC=0x00;
	OUT  0x14,R30
; 0000 0097 
; 0000 0098 // Port D initialization
; 0000 0099 // Func7=In Func6=In Func5=Out Func4=In Func3=In Func2=In Func1=In Func0=In
; 0000 009A // State7=T State6=T State5=0 State4=T State3=T State2=T State1=T State0=T
; 0000 009B PORTD=0x00;
	OUT  0x12,R30
; 0000 009C DDRD=0x20;
	LDI  R30,LOW(32)
	OUT  0x11,R30
; 0000 009D 
; 0000 009E // Timer/Counter 0 initialization
; 0000 009F // Clock source: System Clock
; 0000 00A0 // Clock value: Timer 0 Stopped
; 0000 00A1 TCCR0=0x00;
	LDI  R30,LOW(0)
	OUT  0x33,R30
; 0000 00A2 TCNT0=0x00;
	OUT  0x32,R30
; 0000 00A3 
; 0000 00A4 // Timer/Counter 1 initialization
; 0000 00A5 // Clock source: System Clock
; 0000 00A6 // Clock value: Timer 1 Stopped
; 0000 00A7 // Mode: Normal top=FFFFh
; 0000 00A8 // OC1A output: Discon.
; 0000 00A9 // OC1B output: Discon.
; 0000 00AA // Noise Canceler: Off
; 0000 00AB // Input Capture on Falling Edge
; 0000 00AC TCCR1A=0x00;
	OUT  0x2F,R30
; 0000 00AD TCCR1B=0x00;
	OUT  0x2E,R30
; 0000 00AE TCNT1H=0x00;
	OUT  0x2D,R30
; 0000 00AF TCNT1L=0x00;
	OUT  0x2C,R30
; 0000 00B0 ICR1H=0x00;
	OUT  0x27,R30
; 0000 00B1 ICR1L=0x00;
	OUT  0x26,R30
; 0000 00B2 OCR1AH=0x00;
	OUT  0x2B,R30
; 0000 00B3 OCR1AL=0x00;
	OUT  0x2A,R30
; 0000 00B4 OCR1BH=0x00;
	OUT  0x29,R30
; 0000 00B5 OCR1BL=0x00;
	OUT  0x28,R30
; 0000 00B6 
; 0000 00B7 // Timer/Counter 2 initialization
; 0000 00B8 // Clock source: System Clock
; 0000 00B9 // Clock value: Timer 2 Stopped
; 0000 00BA // Mode: Normal top=FFh
; 0000 00BB // OC2 output: Disconnected
; 0000 00BC ASSR=0x00;
	OUT  0x22,R30
; 0000 00BD TCCR2=0x00;
	OUT  0x25,R30
; 0000 00BE TCNT2=0x00;
	OUT  0x24,R30
; 0000 00BF OCR2=0x00;
	OUT  0x23,R30
; 0000 00C0 
; 0000 00C1 // External Interrupt(s) initialization
; 0000 00C2 // INT0: Off
; 0000 00C3 // INT1: Off
; 0000 00C4 MCUCR=0x00;
	OUT  0x35,R30
; 0000 00C5 
; 0000 00C6 // Timer(s)/Counter(s) Interrupt(s) initialization
; 0000 00C7 TIMSK=0x00;
	OUT  0x39,R30
; 0000 00C8 
; 0000 00C9 	// USART initialization Communication Parameters: 8 Data, 1 Stop, No Parity
; 0000 00CA     // USART Receiver: On
; 0000 00CB     // USART Transmitter: On
; 0000 00CC 	UCSRA=0x00; UCSRC=0x86; UCSRB = (1<<TXEN) | (1<<RXEN);
	OUT  0xB,R30
	LDI  R30,LOW(134)
	OUT  0x20,R30
	LDI  R30,LOW(24)
	OUT  0xA,R30
; 0000 00CD     bauddiv = ((_MCU_CLOCK_FREQUENCY_ + (BAUDRATE * 8L))/(BAUDRATE * 16L) - 1);
	__GETWRN 16,17,1
; 0000 00CE     UBRRL = (unsigned char)bauddiv;
	OUT  0x9,R16
; 0000 00CF 	UBRRH = bauddiv >> 8;
	MOV  R30,R17
	ANDI R31,HIGH(0x0)
	OUT  0x20,R30
; 0000 00D0 /*
; 0000 00D1 // USART initialization
; 0000 00D2 // Communication Parameters: 8 Data, 1 Stop, No Parity
; 0000 00D3 // USART Receiver: On
; 0000 00D4 // USART Transmitter: On
; 0000 00D5 // USART Mode: Asynchronous
; 0000 00D6 // USART Baud rate: 115200
; 0000 00D7 UCSRA=0x00;
; 0000 00D8 UCSRB=0xD8;
; 0000 00D9 UCSRC=0x86;
; 0000 00DA UBRRH=0x00;
; 0000 00DB UBRRL=0x03;
; 0000 00DC */
; 0000 00DD 
; 0000 00DE // Analog Comparator initialization
; 0000 00DF // Analog Comparator: Off
; 0000 00E0 // Analog Comparator Input Capture by Timer/Counter 1: Off
; 0000 00E1 // Analog Comparator Output: Off
; 0000 00E2 ACSR=0x80;
	LDI  R30,LOW(128)
	OUT  0x8,R30
; 0000 00E3 SFIOR=0x00;
	LDI  R30,LOW(0)
	OUT  0x30,R30
; 0000 00E4 
; 0000 00E5 // Global enable interrupts
; 0000 00E6 #asm("sei")
	sei
; 0000 00E7 
; 0000 00E8 while (1) {
_0x15:
; 0000 00E9     while(rx_counter>0) {
_0x18:
	LDI  R30,LOW(0)
	CP   R30,R7
	BRSH _0x1A
; 0000 00EA         indata = getchar();
	RCALL _getchar
	MOV  R11,R30
; 0000 00EB         checklockcode=(checklockcode<<8)|indata;
	CALL SUBOPT_0x0
	LDI  R30,LOW(8)
	CALL __LSLD12
	MOVW R26,R30
	MOVW R24,R22
	MOV  R30,R11
	CLR  R31
	CLR  R22
	CLR  R23
	CALL __ORD12
	STS  _checklockcode,R30
	STS  _checklockcode+1,R31
	STS  _checklockcode+2,R22
	STS  _checklockcode+3,R23
; 0000 00EC         if (checklockcode==lockcode) {
	LDS  R30,_lockcode
	LDS  R31,_lockcode+1
	LDS  R22,_lockcode+2
	LDS  R23,_lockcode+3
	CALL SUBOPT_0x0
	CALL __CPD12
	BRNE _0x1B
; 0000 00ED             #asm("jmp 0xe00"); //flash size - boot sector size
	jmp 0xe00
; 0000 00EE         }
; 0000 00EF     }
_0x1B:
	RJMP _0x18
_0x1A:
; 0000 00F0     delay_ms(100);
	LDI  R30,LOW(100)
	LDI  R31,HIGH(100)
	ST   -Y,R31
	ST   -Y,R30
	CALL _delay_ms
; 0000 00F1     PORTA.2 = !PORTA.2; //flash a led
	SBIS 0x1B,2
	RJMP _0x1C
	CBI  0x1B,2
	RJMP _0x1D
_0x1C:
	SBI  0x1B,2
_0x1D:
; 0000 00F2     PORTA.3 = !PORTA.3;
	SBIS 0x1B,3
	RJMP _0x1E
	CBI  0x1B,3
	RJMP _0x1F
_0x1E:
	SBI  0x1B,3
_0x1F:
; 0000 00F3     putchar(dot);
	ST   -Y,R19
	RCALL _putchar
; 0000 00F4 }
	RJMP _0x15
; 0000 00F5 }
_0x20:
	RJMP _0x20
	#ifndef __SLEEP_DEFINED__
	#define __SLEEP_DEFINED__
	.EQU __se_bit=0x80
	.EQU __sm_mask=0x70
	.EQU __sm_powerdown=0x20
	.EQU __sm_powersave=0x30
	.EQU __sm_standby=0x60
	.EQU __sm_ext_standby=0x70
	.EQU __sm_adc_noise_red=0x10
	.SET power_ctrl_reg=mcucr
	#endif

	.CSEG

	.CSEG

	.CSEG

	.DSEG
_rx_buffer:
	.BYTE 0x20
_tx_buffer:
	.BYTE 0x20
_lockcode:
	.BYTE 0x4
_checklockcode:
	.BYTE 0x4
_p_S1020024:
	.BYTE 0x2

	.CSEG
;OPTIMIZER ADDED SUBROUTINE, CALLED 2 TIMES, CODE SIZE REDUCTION:3 WORDS
SUBOPT_0x0:
	LDS  R26,_checklockcode
	LDS  R27,_checklockcode+1
	LDS  R24,_checklockcode+2
	LDS  R25,_checklockcode+3
	RET


	.CSEG
_delay_ms:
	ld   r30,y+
	ld   r31,y+
	adiw r30,0
	breq __delay_ms1
__delay_ms0:
	__DELAY_USW 0x39A
	wdr
	sbiw r30,1
	brne __delay_ms0
__delay_ms1:
	ret

__ORD12:
	OR   R30,R26
	OR   R31,R27
	OR   R22,R24
	OR   R23,R25
	RET

__LSLD12:
	TST  R30
	MOV  R0,R30
	MOVW R30,R26
	MOVW R22,R24
	BREQ __LSLD12R
__LSLD12L:
	LSL  R30
	ROL  R31
	ROL  R22
	ROL  R23
	DEC  R0
	BRNE __LSLD12L
__LSLD12R:
	RET

__CPD12:
	CP   R30,R26
	CPC  R31,R27
	CPC  R22,R24
	CPC  R23,R25
	RET

;END OF CODE MARKER
__END_OF_CODE:
